target datalayout = "e-m:e-p270:32:32-p271:32:32-p272:64:64-i64:64-i128:128-f80:128-n8:16:32:64-S128"
target triple = "x86_64-pc-linux-gnu"

%class.QString = type { ptr }
%class.ShadowMapping = type <{ %class.DecorateShader, float, i32, i32, i32, i32, [4 x i8] }>
%class.DecorateShader = type { ptr, i8, i32, i32, i32 }

@.str.6 = private unnamed_addr constant [27 x i8] c"/decorate_shadow/sm/object\00", align 1

; Function Attrs: mustprogress uwtable
define linkonce_odr noundef zeroext i1 @_ZN14DecorateShader9initSetupEv(ptr noundef nonnull align 8 dereferenceable(24) %0) #1 comdat align 2 {
  %2 = alloca ptr, align 8
  store ptr %0, ptr %2, align 8
  %3 = load ptr, ptr %2, align 8
  %4 = load ptr, ptr %3, align 8
  %5 = getelementptr inbounds ptr, ptr %4, i64 5
  %6 = load ptr, ptr %5, align 8
  %7 = call noundef zeroext i1 %6(ptr noundef nonnull align 8 dereferenceable(24) %3)
  ret i1 %7
}

; Function Attrs: mustprogress uwtable
define linkonce_odr noundef zeroext i1 @_ZN14DecorateShader8initGlewEv(ptr noundef nonnull align 8 dereferenceable(24) %0) #1 comdat align 2 {
  %2 = alloca ptr, align 8
  store ptr %0, ptr %2, align 8
  %3 = call noundef zeroext i1 @_ZN19GLExtensionsManager34initializeGLextensions_notThrowingEv()
  ret i1 %3
}

; Function Attrs: mustprogress uwtable
define noundef zeroext i1 @_ZN13ShadowMapping4initEv(ptr noundef nonnull align 8 dereferenceable(44) %0) unnamed_addr #1 align 2 personality ptr @__gxx_personality_v0 {
  %2 = alloca i1, align 1
  %3 = alloca ptr, align 8
  %4 = alloca %class.QString, align 8
  %5 = alloca %class.QString, align 8
  %6 = alloca ptr, align 8
  %7 = alloca i32, align 4
  store ptr %0, ptr %3, align 8
  %8 = load ptr, ptr %3, align 8
  %9 = call noundef zeroext i1 @_ZN14DecorateShader8initGlewEv(ptr noundef nonnull align 8 dereferenceable(24) %8)
  br i1 %9, label %10, label %12

10:                                               ; preds = %1
  %11 = call noundef zeroext i1 @_ZN14DecorateShader9initSetupEv(ptr noundef nonnull align 8 dereferenceable(24) %8)
  br i1 %11, label %13, label %12

12:                                               ; preds = %10, %1
  store i1 false, ptr %2, align 1
  br label %29

13:                                               ; preds = %10
  %14 = getelementptr inbounds %class.ShadowMapping, ptr %8, i32 0, i32 3
  %15 = getelementptr inbounds %class.ShadowMapping, ptr %8, i32 0, i32 4
  %16 = getelementptr inbounds %class.ShadowMapping, ptr %8, i32 0, i32 5
  call void @_ZN7meshlab18defaultShadersPathEv(ptr dead_on_unwind writable sret(%class.QString) align 8 %5)
  invoke void @_ZplRK7QStringPKc(ptr dead_on_unwind writable sret(%class.QString) align 8 %4, ptr noundef nonnull align 8 dereferenceable(8) %5, ptr noundef @.str.6)
          to label %17 unwind label %20

17:                                               ; preds = %13
  %18 = invoke noundef zeroext i1 @_ZN14DecorateShader14compileAndLinkERjS0_S0_7QString(ptr noundef nonnull align 8 dereferenceable(24) %8, ptr noundef nonnull align 4 dereferenceable(4) %14, ptr noundef nonnull align 4 dereferenceable(4) %15, ptr noundef nonnull align 4 dereferenceable(4) %16, ptr noundef %4)
          to label %19 unwind label %24

19:                                               ; preds = %17
  store i1 %18, ptr %2, align 1
  call void @_ZN7QStringD2Ev(ptr noundef nonnull align 8 dereferenceable(8) %4) #5
  call void @_ZN7QStringD2Ev(ptr noundef nonnull align 8 dereferenceable(8) %5) #5
  br label %29

20:                                               ; preds = %13
  %21 = landingpad { ptr, i32 }
          cleanup
  %22 = extractvalue { ptr, i32 } %21, 0
  store ptr %22, ptr %6, align 8
  %23 = extractvalue { ptr, i32 } %21, 1
  store i32 %23, ptr %7, align 4
  br label %28

24:                                               ; preds = %17
  %25 = landingpad { ptr, i32 }
          cleanup
  %26 = extractvalue { ptr, i32 } %25, 0
  store ptr %26, ptr %6, align 8
  %27 = extractvalue { ptr, i32 } %25, 1
  store i32 %27, ptr %7, align 4
  call void @_ZN7QStringD2Ev(ptr noundef nonnull align 8 dereferenceable(8) %4) #5
  br label %28

28:                                               ; preds = %24, %20
  call void @_ZN7QStringD2Ev(ptr noundef nonnull align 8 dereferenceable(8) %5) #5
  br label %31

29:                                               ; preds = %19, %12
  %30 = load i1, ptr %2, align 1
  ret i1 %30

31:                                               ; preds = %28
  %32 = load ptr, ptr %6, align 8
  %33 = load i32, ptr %7, align 4
  %34 = insertvalue { ptr, i32 } poison, ptr %32, 0
  %35 = insertvalue { ptr, i32 } %34, i32 %33, 1
  resume { ptr, i32 } %35
}