; Function Attrs: mustprogress uwtable
define noundef zeroext i1 @_ZN13ShadowMapping4initEv(ptr noundef nonnull align 8 dereferenceable(44) %0) unnamed_addr #1 align 2 personality ptr @__gxx_personality_v0 {
  %2 = alloca %class.QString, align 8
  %3 = alloca %class.QString, align 8
  %4 = tail call noundef zeroext i1 @_ZN19GLExtensionsManager34initializeGLextensions_notThrowingEv()
  br i1 %4, label %5, label %_ZN7QStringD2Ev.exit11

5:                                                ; preds = %1
  %6 = load ptr, ptr %0, align 8
  %7 = getelementptr inbounds i8, ptr %6, i64 40
  %8 = load ptr, ptr %7, align 8
  %9 = tail call noundef zeroext i1 %8(ptr noundef nonnull align 8 dereferenceable(24) %0)
  br i1 %9, label %10, label %_ZN7QStringD2Ev.exit11

10:                                               ; preds = %5
  call void @_ZN7meshlab18defaultShadersPathEv(ptr dead_on_unwind nonnull writable sret(%class.QString) align 8 %3)
  invoke void @_ZplRK7QStringPKc(ptr dead_on_unwind nonnull writable sret(%class.QString) align 8 %2, ptr noundef nonnull align 8 dereferenceable(8) %3, ptr noundef nonnull @.str.6)
          to label %11 unwind label %25

11:                                               ; preds = %10
  %12 = getelementptr inbounds i8, ptr %0, i64 40
  %13 = getelementptr inbounds i8, ptr %0, i64 36
  %14 = getelementptr inbounds i8, ptr %0, i64 32
  %15 = invoke noundef zeroext i1 @_ZN14DecorateShader14compileAndLinkERjS0_S0_7QString(ptr noundef nonnull align 8 dereferenceable(24) %0, ptr noundef nonnull align 4 dereferenceable(4) %14, ptr noundef nonnull align 4 dereferenceable(4) %13, ptr noundef nonnull align 4 dereferenceable(4) %12, ptr noundef nonnull %2)
          to label %16 unwind label %27

16:                                               ; preds = %11
  %17 = load ptr, ptr %2, align 8
  %18 = load atomic i32, ptr %17 monotonic, align 4
  switch i32 %18, label %_ZN9QtPrivate8RefCount5derefEv.exit.i [
    i32 0, label %_ZN9QtPrivate8RefCount5derefEv.exit.thread2.i
    i32 -1, label %_ZN7QStringD2Ev.exit
  ]

_ZN9QtPrivate8RefCount5derefEv.exit.i:            ; preds = %16
  %19 = atomicrmw sub ptr %17, i32 1 seq_cst, align 4
  %.not.i = icmp eq i32 %19, 1
  br i1 %.not.i, label %_ZN9QtPrivate8RefCount5derefEv.exit._ZN9QtPrivate8RefCount5derefEv.exit.thread2_crit_edge.i, label %_ZN7QStringD2Ev.exit

_ZN9QtPrivate8RefCount5derefEv.exit._ZN9QtPrivate8RefCount5derefEv.exit.thread2_crit_edge.i: ; preds = %_ZN9QtPrivate8RefCount5derefEv.exit.i
  %.pre.i = load ptr, ptr %2, align 8
  br label %_ZN9QtPrivate8RefCount5derefEv.exit.thread2.i

_ZN9QtPrivate8RefCount5derefEv.exit.thread2.i:    ; preds = %_ZN9QtPrivate8RefCount5derefEv.exit._ZN9QtPrivate8RefCount5derefEv.exit.thread2_crit_edge.i, %16
  %20 = phi ptr [ %.pre.i, %_ZN9QtPrivate8RefCount5derefEv.exit._ZN9QtPrivate8RefCount5derefEv.exit.thread2_crit_edge.i ], [ %17, %16 ]
  call void @_ZN10QArrayData10deallocateEPS_mm(ptr noundef %20, i64 noundef 2, i64 noundef 8) #23
  br label %_ZN7QStringD2Ev.exit

_ZN7QStringD2Ev.exit:                             ; preds = %16, %_ZN9QtPrivate8RefCount5derefEv.exit.i, %_ZN9QtPrivate8RefCount5derefEv.exit.thread2.i
  %21 = load ptr, ptr %3, align 8
  %22 = load atomic i32, ptr %21 monotonic, align 4
  switch i32 %22, label %_ZN9QtPrivate8RefCount5derefEv.exit.i7 [
    i32 0, label %_ZN9QtPrivate8RefCount5derefEv.exit.thread2.i6
    i32 -1, label %_ZN7QStringD2Ev.exit11
  ]

_ZN9QtPrivate8RefCount5derefEv.exit.i7:           ; preds = %_ZN7QStringD2Ev.exit
  %23 = atomicrmw sub ptr %21, i32 1 seq_cst, align 4
  %.not.i8 = icmp eq i32 %23, 1
  br i1 %.not.i8, label %_ZN9QtPrivate8RefCount5derefEv.exit._ZN9QtPrivate8RefCount5derefEv.exit.thread2_crit_edge.i9, label %_ZN7QStringD2Ev.exit11

_ZN9QtPrivate8RefCount5derefEv.exit._ZN9QtPrivate8RefCount5derefEv.exit.thread2_crit_edge.i9: ; preds = %_ZN9QtPrivate8RefCount5derefEv.exit.i7
  %.pre.i10 = load ptr, ptr %3, align 8
  br label %_ZN9QtPrivate8RefCount5derefEv.exit.thread2.i6

_ZN9QtPrivate8RefCount5derefEv.exit.thread2.i6:   ; preds = %_ZN9QtPrivate8RefCount5derefEv.exit._ZN9QtPrivate8RefCount5derefEv.exit.thread2_crit_edge.i9, %_ZN7QStringD2Ev.exit
  %24 = phi ptr [ %.pre.i10, %_ZN9QtPrivate8RefCount5derefEv.exit._ZN9QtPrivate8RefCount5derefEv.exit.thread2_crit_edge.i9 ], [ %21, %_ZN7QStringD2Ev.exit ]
  call void @_ZN10QArrayData10deallocateEPS_mm(ptr noundef %24, i64 noundef 2, i64 noundef 8) #23
  br label %_ZN7QStringD2Ev.exit11

25:                                               ; preds = %10
  %26 = landingpad { ptr, i32 }
          cleanup
  br label %29

27:                                               ; preds = %11
  %28 = landingpad { ptr, i32 }
          cleanup
  call void @_ZN7QStringD2Ev(ptr noundef nonnull align 8 dereferenceable(8) %2) #23
  br label %29

29:                                               ; preds = %27, %25
  %.pn = phi { ptr, i32 } [ %28, %27 ], [ %26, %25 ]
  call void @_ZN7QStringD2Ev(ptr noundef nonnull align 8 dereferenceable(8) %3) #23
  resume { ptr, i32 } %.pn

_ZN7QStringD2Ev.exit11:                           ; preds = %_ZN9QtPrivate8RefCount5derefEv.exit.thread2.i6, %_ZN9QtPrivate8RefCount5derefEv.exit.i7, %_ZN7QStringD2Ev.exit, %1, %5
  %.04 = phi i1 [ false, %5 ], [ false, %1 ], [ %15, %_ZN7QStringD2Ev.exit ], [ %15, %_ZN9QtPrivate8RefCount5derefEv.exit.i7 ], [ %15, %_ZN9QtPrivate8RefCount5derefEv.exit.thread2.i6 ]
  ret i1 %.04
}